; Function Attrs: mustprogress uwtable
define noundef signext i8 @ufmtval_nextPosition_77(ptr noundef readonly %0, ptr noundef %1, ptr noundef %2) local_unnamed_addr #1 {
  %4 = load i32, ptr %2, align 4, !tbaa !13
  %5 = icmp slt i32 %4, 1
  br i1 %5, label %6, label %_ZN6icu_7713IcuCApiHelperI25UConstrainedFieldPositionNS_29UConstrainedFieldPositionImplELi1430472192EE8validateEPS1_R10UErrorCode.exit.thread

6:                                                ; preds = %3
  %7 = icmp eq ptr %0, null
  br i1 %7, label %.sink.split.i, label %8

8:                                                ; preds = %6
  %9 = load i32, ptr %0, align 4, !tbaa !25
  %.not9.i = icmp eq i32 %9, 1430672896
  br i1 %.not9.i, label %_ZN6icu_7713IcuCApiHelperI15UFormattedValueNS_19UFormattedValueImplELi1430672896EE8validateEPKS1_R10UErrorCode.exit, label %.sink.split.i

.sink.split.i:                                    ; preds = %8, %6
  %.sink.i = phi i32 [ 1, %6 ], [ 3, %8 ]
  store i32 %.sink.i, ptr %2, align 4, !tbaa !13
  br label %_ZN6icu_7713IcuCApiHelperI25UConstrainedFieldPositionNS_29UConstrainedFieldPositionImplELi1430472192EE8validateEPS1_R10UErrorCode.exit.thread

_ZN6icu_7713IcuCApiHelperI15UFormattedValueNS_19UFormattedValueImplELi1430672896EE8validateEPKS1_R10UErrorCode.exit: ; preds = %8
  %10 = icmp eq ptr %1, null
  br i1 %10, label %.sink.split.i.i, label %11

11:                                               ; preds = %_ZN6icu_7713IcuCApiHelperI15UFormattedValueNS_19UFormattedValueImplELi1430672896EE8validateEPKS1_R10UErrorCode.exit
  %12 = load i32, ptr %1, align 4, !tbaa !23
  %.not9.i.i = icmp eq i32 %12, 1430472192
  br i1 %.not9.i.i, label %_ZN6icu_7713IcuCApiHelperI25UConstrainedFieldPositionNS_29UConstrainedFieldPositionImplELi1430472192EE8validateEPS1_R10UErrorCode.exit, label %.sink.split.i.i

.sink.split.i.i:                                  ; preds = %11, %_ZN6icu_7713IcuCApiHelperI15UFormattedValueNS_19UFormattedValueImplELi1430672896EE8validateEPKS1_R10UErrorCode.exit
  %.sink.i.i = phi i32 [ 1, %_ZN6icu_7713IcuCApiHelperI15UFormattedValueNS_19UFormattedValueImplELi1430672896EE8validateEPKS1_R10UErrorCode.exit ], [ 3, %11 ]
  store i32 %.sink.i.i, ptr %2, align 4, !tbaa !13
  br label %_ZN6icu_7713IcuCApiHelperI25UConstrainedFieldPositionNS_29UConstrainedFieldPositionImplELi1430472192EE8validateEPS1_R10UErrorCode.exit.thread

_ZN6icu_7713IcuCApiHelperI25UConstrainedFieldPositionNS_29UConstrainedFieldPositionImplELi1430472192EE8validateEPS1_R10UErrorCode.exit: ; preds = %11
  %13 = getelementptr inbounds nuw i8, ptr %0, i64 8
  %14 = load ptr, ptr %13, align 8, !tbaa !27
  %15 = getelementptr inbounds nuw i8, ptr %1, i64 8
  %16 = load ptr, ptr %14, align 8, !tbaa !30
  %17 = getelementptr inbounds nuw i8, ptr %16, i64 40
  %18 = load ptr, ptr %17, align 8
  %19 = tail call noundef signext i8 %18(ptr noundef nonnull align 8 dereferenceable(8) %14, ptr noundef nonnull align 8 dereferenceable(25) %15, ptr noundef nonnull align 4 dereferenceable(4) %2)
  br label %_ZN6icu_7713IcuCApiHelperI25UConstrainedFieldPositionNS_29UConstrainedFieldPositionImplELi1430472192EE8validateEPS1_R10UErrorCode.exit.thread

_ZN6icu_7713IcuCApiHelperI25UConstrainedFieldPositionNS_29UConstrainedFieldPositionImplELi1430472192EE8validateEPS1_R10UErrorCode.exit.thread: ; preds = %.sink.split.i, %3, %.sink.split.i.i, %_ZN6icu_7713IcuCApiHelperI25UConstrainedFieldPositionNS_29UConstrainedFieldPositionImplELi1430472192EE8validateEPS1_R10UErrorCode.exit
  %.0 = phi i8 [ %19, %_ZN6icu_7713IcuCApiHelperI25UConstrainedFieldPositionNS_29UConstrainedFieldPositionImplELi1430472192EE8validateEPS1_R10UErrorCode.exit ], [ 0, %.sink.split.i.i ], [ 0, %3 ], [ 0, %.sink.split.i ]
  ret i8 %.0
}